ccollections
defaultdict
p0
(c__builtin__
int
p1
tp2
Rp3
S'643'
p4
I4
sS'344'
p5
I51
sS'345'
p6
I58
sS'346'
p7
I112
sS'347'
p8
I120
sS'340'
p9
I170
sS'341'
p10
I9
sS'342'
p11
I48
sS'343'
p12
I108
sS'348'
p13
I25
sS'349'
p14
I30
sS'1653'
p15
I1
sS'298'
p16
I174
sS'299'
p17
I65
sS'296'
p18
I6
sS'297'
p19
I42
sS'294'
p20
I427
sS'295'
p21
I70
sS'292'
p22
I101
sS'293'
p23
I134
sS'290'
p24
I87
sS'291'
p25
I119
sS'270'
p26
I130
sS'271'
p27
I187
sS'272'
p28
I181
sS'273'
p29
I204
sS'274'
p30
I165
sS'275'
p31
I234
sS'276'
p32
I271
sS'277'
p33
I68
sS'278'
p34
I58
sS'279'
p35
I25
sS'1004'
p36
I9
sS'108'
p37
I58
sS'109'
p38
I113
sS'102'
p39
I50
sS'103'
p40
I13
sS'100'
p41
I463
sS'101'
p42
I64
sS'106'
p43
I64
sS'107'
p44
I39
sS'104'
p45
I4
sS'105'
p46
I67
sS'1373'
p47
I1
sS'1001'
p48
I16
sS'1374'
p49
I1
sS'99'
p50
I149
sS'98'
p51
I362
sS'91'
p52
I132
sS'90'
p53
I92
sS'93'
p54
I106
sS'92'
p55
I82
sS'95'
p56
I190
sS'94'
p57
I128
sS'97'
p58
I232
sS'96'
p59
I258
sS'1623'
p60
I3
sS'1622'
p61
I3
sS'1621'
p62
I1
sS'1620'
p63
I7
sS'1627'
p64
I1
sS'1626'
p65
I1
sS'1625'
p66
I1
sS'1624'
p67
I1
sS'1629'
p68
I2
sS'1628'
p69
I4
sS'559'
p70
I123
sS'558'
p71
I65
sS'555'
p72
I8
sS'554'
p73
I94
sS'557'
p74
I14
sS'556'
p75
I12
sS'551'
p76
I24
sS'550'
p77
I138
sS'553'
p78
I56
sS'552'
p79
I41
sS'1199'
p80
I21
sS'1198'
p81
I6
sS'1191'
p82
I2
sS'1190'
p83
I9
sS'1193'
p84
I8
sS'1192'
p85
I10
sS'1195'
p86
I8
sS'1194'
p87
I27
sS'1197'
p88
I37
sS'1196'
p89
I3
sS'1177'
p90
I6
sS'1176'
p91
I20
sS'1175'
p92
I4
sS'1174'
p93
I8
sS'1173'
p94
I6
sS'1172'
p95
I14
sS'1171'
p96
I10
sS'1170'
p97
I24
sS'1179'
p98
I8
sS'1178'
p99
I18
sS'511'
p100
I158
sS'510'
p101
I112
sS'513'
p102
I64
sS'1285'
p103
I11
sS'1284'
p104
I24
sS'1287'
p105
I6
sS'1286'
p106
I17
sS'1281'
p107
I13
sS'1280'
p108
I16
sS'1283'
p109
I18
sS'1282'
p110
I8
sS'1003'
p111
I8
sS'879'
p112
I115
sS'1289'
p113
I6
sS'1288'
p114
I5
sS'1002'
p115
I7
sS'1579'
p116
I1
sS'1578'
p117
I2
sS'689'
p118
I74
sS'688'
p119
I42
sS'685'
p120
I132
sS'684'
p121
I150
sS'687'
p122
I62
sS'686'
p123
I44
sS'681'
p124
I25
sS'680'
p125
I25
sS'683'
p126
I45
sS'682'
p127
I88
sS'1227'
p128
I8
sS'622'
p129
I36
sS'621'
p130
I9
sS'1224'
p131
I11
sS'1223'
p132
I3
sS'1222'
p133
I22
sS'1221'
p134
I33
sS'1220'
p135
I25
sS'407'
p136
I35
sS'406'
p137
I47
sS'405'
p138
I322
sS'1372'
p139
I3
sS'1375'
p140
I10
sS'402'
p141
I150
sS'1377'
p142
I3
sS'400'
p143
I17
sS'1379'
p144
I7
sS'1378'
p145
I4
sS'1342'
p146
I2
sS'409'
p147
I58
sS'408'
p148
I99
sS'1343'
p149
I1
sS'1344'
p150
I4
sS'1345'
p151
I2
sS'1346'
p152
I5
sS'1347'
p153
I4
sS'1018'
p154
I32
sS'379'
p155
I40
sS'378'
p156
I91
sS'371'
p157
I59
sS'370'
p158
I35
sS'373'
p159
I36
sS'372'
p160
I30
sS'375'
p161
I21
sS'374'
p162
I10
sS'377'
p163
I10
sS'376'
p164
I23
sS'393'
p165
I166
sS'392'
p166
I63
sS'391'
p167
I52
sS'390'
p168
I8
sS'397'
p169
I12
sS'396'
p170
I48
sS'395'
p171
I51
sS'394'
p172
I12
sS'399'
p173
I76
sS'398'
p174
I25
sS'1247'
p175
I5
sS'245'
p176
I214
sS'244'
p177
I44
sS'247'
p178
I5
sS'246'
p179
I110
sS'241'
p180
I120
sS'240'
p181
I139
sS'243'
p182
I118
sS'242'
p183
I104
sS'249'
p184
I119
sS'248'
p185
I152
sS'179'
p186
I203
sS'178'
p187
I111
sS'177'
p188
I120
sS'176'
p189
I253
sS'175'
p190
I190
sS'174'
p191
I372
sS'173'
p192
I299
sS'172'
p193
I331
sS'171'
p194
I59
sS'170'
p195
I111
sS'1502'
p196
I2
sS'1503'
p197
I9
sS'1500'
p198
I1
sS'655'
p199
I201
sS'1506'
p200
I2
sS'653'
p201
I30
sS'1504'
p202
I3
sS'1505'
p203
I1
sS'1364'
p204
I1
sS'659'
p205
I102
sS'1365'
p206
I1
sS'1618'
p207
I1
sS'1619'
p208
I1
sS'1617'
p209
I2
sS'1615'
p210
I9
sS'1612'
p211
I3
sS'1613'
p212
I1
sS'1610'
p213
I3
sS'1611'
p214
I2
sS'1114'
p215
I10
sS'1363'
p216
I1
sS'1142'
p217
I41
sS'1143'
p218
I13
sS'1140'
p219
I15
sS'1141'
p220
I8
sS'1146'
p221
I2
sS'1147'
p222
I19
sS'1144'
p223
I2
sS'1145'
p224
I7
sS'1148'
p225
I9
sS'1149'
p226
I24
sS'692'
p227
I150
sS'693'
p228
I85
sS'690'
p229
I140
sS'691'
p230
I15
sS'696'
p231
I71
sS'697'
p232
I36
sS'1540'
p233
I10
sS'695'
p234
I13
sS'698'
p235
I8
sS'699'
p236
I98
sS'1548'
p237
I1
sS'1549'
p238
I2
sS'542'
p239
I45
sS'543'
p240
I21
sS'540'
p241
I39
sS'541'
p242
I46
sS'546'
p243
I221
sS'547'
p244
I36
sS'544'
p245
I59
sS'545'
p246
I12
sS'548'
p247
I11
sS'549'
p248
I83
sS'414'
p249
I54
sS'415'
p250
I24
sS'416'
p251
I55
sS'417'
p252
I66
sS'410'
p253
I140
sS'411'
p254
I147
sS'412'
p255
I89
sS'413'
p256
I47
sS'1384'
p257
I3
sS'1385'
p258
I5
sS'1386'
p259
I5
sS'1387'
p260
I3
sS'418'
p261
I115
sS'419'
p262
I158
sS'1382'
p263
I4
sS'1383'
p264
I5
sS'368'
p265
I27
sS'369'
p266
I49
sS'366'
p267
I42
sS'367'
p268
I152
sS'364'
p269
I33
sS'365'
p270
I42
sS'362'
p271
I26
sS'363'
p272
I44
sS'360'
p273
I9
sS'361'
p274
I10
sS'380'
p275
I106
sS'381'
p276
I89
sS'382'
p277
I100
sS'383'
p278
I30
sS'384'
p279
I64
sS'385'
p280
I191
sS'386'
p281
I78
sS'387'
p282
I56
sS'388'
p283
I23
sS'389'
p284
I25
sS'258'
p285
I460
sS'259'
p286
I146
sS'252'
p287
I143
sS'253'
p288
I23
sS'250'
p289
I177
sS'251'
p290
I41
sS'256'
p291
I13
sS'257'
p292
I268
sS'254'
p293
I58
sS'255'
p294
I157
sS'1679'
p295
I1
sS'168'
p296
I285
sS'169'
p297
I105
sS'164'
p298
I131
sS'165'
p299
I58
sS'166'
p300
I50
sS'167'
p301
I62
sS'160'
p302
I62
sS'161'
p303
I202
sS'162'
p304
I101
sS'163'
p305
I84
sS'678'
p306
I201
sS'1091'
p307
I41
sS'1093'
p308
I19
sS'1098'
p309
I37
sS'671'
p310
I39
sS'1609'
p311
I2
sS'1608'
p312
I3
sS'1601'
p313
I1
sS'1600'
p314
I4
sS'1603'
p315
I1
sS'1602'
p316
I3
sS'1605'
p317
I4
sS'1604'
p318
I1
sS'1607'
p319
I2
sS'1606'
p320
I1
sS'809'
p321
I40
sS'808'
p322
I27
sS'803'
p323
I8
sS'802'
p324
I37
sS'801'
p325
I13
sS'800'
p326
I22
sS'807'
p327
I9
sS'806'
p328
I44
sS'805'
p329
I24
sS'804'
p330
I8
sS'608'
p331
I30
sS'1159'
p332
I8
sS'1158'
p333
I4
sS'1155'
p334
I3
sS'1154'
p335
I12
sS'1157'
p336
I23
sS'1156'
p337
I1
sS'1151'
p338
I7
sS'1150'
p339
I9
sS'1153'
p340
I17
sS'1152'
p341
I25
sS'1555'
p342
I4
sS'1554'
p343
I2
sS'1551'
p344
I2
sS'1550'
p345
I2
sS'1553'
p346
I4
sS'1552'
p347
I3
sS'59'
p348
I75
sS'58'
p349
I160
sS'1557'
p350
I1
sS'1556'
p351
I2
sS'55'
p352
I138
sS'54'
p353
I92
sS'57'
p354
I36
sS'56'
p355
I354
sS'51'
p356
I71
sS'50'
p357
I522
sS'53'
p358
I116
sS'52'
p359
I77
sS'537'
p360
I27
sS'536'
p361
I8
sS'535'
p362
I47
sS'534'
p363
I11
sS'533'
p364
I14
sS'532'
p365
I20
sS'531'
p366
I117
sS'530'
p367
I71
sS'539'
p368
I37
sS'538'
p369
I54
sS'1558'
p370
I6
sS'429'
p371
I87
sS'428'
p372
I107
sS'1399'
p373
I7
sS'1398'
p374
I2
sS'1397'
p375
I5
sS'420'
p376
I76
sS'423'
p377
I267
sS'422'
p378
I22
sS'425'
p379
I75
sS'424'
p380
I18
sS'427'
p381
I204
sS'426'
p382
I30
sS'229'
p383
I154
sS'228'
p384
I227
sS'227'
p385
I147
sS'226'
p386
I148
sS'225'
p387
I93
sS'224'
p388
I42
sS'223'
p389
I127
sS'222'
p390
I325
sS'221'
p391
I68
sS'220'
p392
I63
sS'151'
p393
I293
sS'150'
p394
I136
sS'153'
p395
I215
sS'152'
p396
I78
sS'155'
p397
I83
sS'154'
p398
I160
sS'157'
p399
I113
sS'156'
p400
I129
sS'159'
p401
I86
sS'158'
p402
I56
sS'1293'
p403
I3
sS'1256'
p404
I3
sS'1544'
p405
I2
sS'1526'
p406
I1
sS'818'
p407
I23
sS'819'
p408
I36
sS'1255'
p409
I6
sS'810'
p410
I42
sS'811'
p411
I17
sS'812'
p412
I17
sS'813'
p413
I54
sS'814'
p414
I1
sS'815'
p415
I104
sS'816'
p416
I20
sS'817'
p417
I3
sS'1522'
p418
I7
sS'1523'
p419
I2
sS'1490'
p420
I3
sS'421'
p421
I95
sS'1492'
p422
I1
sS'1493'
p423
I1
sS'1494'
p424
I1
sS'1495'
p425
I5
sS'1496'
p426
I5
sS'1497'
p427
I2
sS'1498'
p428
I1
sS'1499'
p429
I4
sS'1395'
p430
I6
sS'1394'
p431
I7
sS'1393'
p432
I9
sS'1392'
p433
I5
sS'1391'
p434
I3
sS'1390'
p435
I1
sS'1128'
p436
I9
sS'1129'
p437
I25
sS'1120'
p438
I16
sS'1121'
p439
I20
sS'1122'
p440
I1
sS'1123'
p441
I3
sS'1124'
p442
I11
sS'1125'
p443
I4
sS'1126'
p444
I31
sS'1127'
p445
I11
sS'524'
p446
I43
sS'525'
p447
I67
sS'526'
p448
I112
sS'527'
p449
I177
sS'520'
p450
I112
sS'521'
p451
I110
sS'522'
p452
I32
sS'523'
p453
I140
sS'1014'
p454
I91
sS'1015'
p455
I10
sS'1016'
p456
I125
sS'1017'
p457
I45
sS'1010'
p458
I38
sS'1011'
p459
I83
sS'1012'
p460
I92
sS'1013'
p461
I36
sS'1234'
p462
I7
sS'1235'
p463
I1
sS'1236'
p464
I1
sS'1237'
p465
I6
sS'1230'
p466
I18
sS'1231'
p467
I19
sS'1232'
p468
I13
sS'1233'
p469
I6
sS'1238'
p470
I7
sS'1239'
p471
I18
sS'438'
p472
I6
sS'439'
p473
I5
sS'436'
p474
I87
sS'437'
p475
I5
sS'434'
p476
I65
sS'435'
p477
I198
sS'432'
p478
I155
sS'433'
p479
I156
sS'430'
p480
I84
sS'431'
p481
I133
sS'238'
p482
I233
sS'239'
p483
I140
sS'234'
p484
I252
sS'235'
p485
I192
sS'236'
p486
I42
sS'237'
p487
I345
sS'230'
p488
I168
sS'231'
p489
I127
sS'232'
p490
I84
sS'233'
p491
I113
sS'1'
p492
I407
sS'146'
p493
I9
sS'147'
p494
I169
sS'144'
p495
I215
sS'145'
p496
I63
sS'142'
p497
I53
sS'143'
p498
I187
sS'140'
p499
I54
sS'141'
p500
I58
sS'148'
p501
I116
sS'149'
p502
I22
sS'939'
p503
I55
sS'938'
p504
I22
sS'933'
p505
I18
sS'932'
p506
I37
sS'931'
p507
I51
sS'930'
p508
I74
sS'937'
p509
I28
sS'936'
p510
I27
sS'935'
p511
I6
sS'934'
p512
I63
sS'829'
p513
I31
sS'828'
p514
I11
sS'825'
p515
I76
sS'824'
p516
I45
sS'827'
p517
I52
sS'826'
p518
I73
sS'821'
p519
I20
sS'820'
p520
I79
sS'823'
p521
I73
sS'822'
p522
I3
sS'1536'
p523
I1
sS'1483'
p524
I12
sS'1482'
p525
I1
sS'1481'
p526
I2
sS'1480'
p527
I11
sS'1487'
p528
I4
sS'1486'
p529
I1
sS'1485'
p530
I4
sS'1484'
p531
I3
sS'1489'
p532
I5
sS'1488'
p533
I2
sS'797'
p534
I28
sS'796'
p535
I31
sS'795'
p536
I17
sS'794'
p537
I43
sS'793'
p538
I8
sS'792'
p539
I76
sS'791'
p540
I9
sS'790'
p541
I61
sS'799'
p542
I4
sS'798'
p543
I8
sS'1270'
p544
I6
sS'613'
p545
I24
sS'1272'
p546
I4
sS'1139'
p547
I29
sS'611'
p548
I34
sS'1133'
p549
I25
sS'1132'
p550
I32
sS'1131'
p551
I12
sS'1130'
p552
I1
sS'1137'
p553
I28
sS'1136'
p554
I29
sS'1135'
p555
I40
sS'1134'
p556
I34
sS'1276'
p557
I7
sS'1277'
p558
I18
sS'519'
p559
I75
sS'518'
p560
I77
sS'1009'
p561
I54
sS'1008'
p562
I31
sS'1007'
p563
I42
sS'1006'
p564
I22
sS'1005'
p565
I21
sS'512'
p566
I53
sS'515'
p567
I183
sS'514'
p568
I162
sS'517'
p569
I82
sS'1000'
p570
I10
sS'623'
p571
I35
sS'1226'
p572
I31
sS'1225'
p573
I13
sS'620'
p574
I39
sS'627'
p575
I72
sS'626'
p576
I3
sS'625'
p577
I73
sS'624'
p578
I20
sS'629'
p579
I74
sS'628'
p580
I146
sS'1229'
p581
I10
sS'1228'
p582
I44
sS'1535'
p583
I4
sS'2'
p584
I115
sS'11'
p585
I214
sS'10'
p586
I78
sS'13'
p587
I157
sS'12'
p588
I231
sS'15'
p589
I268
sS'14'
p590
I159
sS'17'
p591
I81
sS'16'
p592
I33
sS'19'
p593
I61
sS'18'
p594
I10
sS'201'
p595
I83
sS'200'
p596
I190
sS'203'
p597
I165
sS'202'
p598
I254
sS'205'
p599
I124
sS'204'
p600
I309
sS'207'
p601
I61
sS'206'
p602
I46
sS'209'
p603
I174
sS'208'
p604
I187
sS'1573'
p605
I1
sS'1572'
p606
I1
sS'1571'
p607
I1
sS'1570'
p608
I1
sS'1577'
p609
I1
sS'1576'
p610
I1
sS'1575'
p611
I1
sS'1574'
p612
I1
sS'928'
p613
I94
sS'929'
p614
I36
sS'920'
p615
I4
sS'921'
p616
I41
sS'922'
p617
I28
sS'923'
p618
I51
sS'924'
p619
I76
sS'925'
p620
I33
sS'926'
p621
I91
sS'927'
p622
I5
sS'832'
p623
I21
sS'833'
p624
I41
sS'830'
p625
I1
sS'831'
p626
I82
sS'836'
p627
I21
sS'837'
p628
I23
sS'834'
p629
I21
sS'835'
p630
I14
sS'838'
p631
I4
sS'839'
p632
I4
sS'3'
p633
I82
sS'1532'
p634
I2
sS'784'
p635
I2
sS'785'
p636
I35
sS'786'
p637
I11
sS'787'
p638
I12
sS'780'
p639
I61
sS'781'
p640
I70
sS'782'
p641
I8
sS'783'
p642
I32
sS'788'
p643
I3
sS'789'
p644
I44
sS'60'
p645
I62
sS'61'
p646
I47
sS'62'
p647
I116
sS'63'
p648
I72
sS'64'
p649
I254
sS'65'
p650
I102
sS'66'
p651
I152
sS'67'
p652
I97
sS'68'
p653
I120
sS'69'
p654
I289
sS'1371'
p655
I2
sS'1588'
p656
I2
sS'1589'
p657
I4
sS'1370'
p658
I3
sS'1583'
p659
I1
sS'1580'
p660
I1
sS'1581'
p661
I1
sS'1587'
p662
I1
sS'1584'
p663
I1
sS'1585'
p664
I2
sS'1038'
p665
I16
sS'404'
p666
I93
sS'508'
p667
I191
sS'509'
p668
I108
sS'1032'
p669
I16
sS'507'
p670
I91
sS'1030'
p671
I16
sS'505'
p672
I57
sS'502'
p673
I49
sS'1037'
p674
I24
sS'1034'
p675
I25
sS'501'
p676
I110
sS'1212'
p677
I6
sS'1213'
p678
I4
sS'1210'
p679
I35
sS'1211'
p680
I9
sS'1216'
p681
I6
sS'401'
p682
I72
sS'636'
p683
I82
sS'637'
p684
I33
sS'638'
p685
I42
sS'639'
p686
I37
sS'1218'
p687
I25
sS'1376'
p688
I6
sS'1454'
p689
I6
sS'1455'
p690
I1
sS'1456'
p691
I6
sS'1105'
p692
I18
sS'1450'
p693
I2
sS'1451'
p694
I11
sS'1452'
p695
I1
sS'1453'
p696
I1
sS'1458'
p697
I1
sS'1459'
p698
I7
sS'1108'
p699
I4
sS'1109'
p700
I26
sS'216'
p701
I270
sS'217'
p702
I112
sS'214'
p703
I101
sS'215'
p704
I190
sS'212'
p705
I85
sS'213'
p706
I116
sS'210'
p707
I308
sS'211'
p708
I192
sS'1530'
p709
I5
sS'218'
p710
I156
sS'219'
p711
I102
sS'4'
p712
I191
sS'919'
p713
I82
sS'918'
p714
I8
sS'915'
p715
I12
sS'914'
p716
I11
sS'917'
p717
I7
sS'916'
p718
I17
sS'911'
p719
I3
sS'910'
p720
I4
sS'913'
p721
I2
sS'912'
p722
I8
sS'847'
p723
I50
sS'846'
p724
I40
sS'845'
p725
I159
sS'844'
p726
I38
sS'843'
p727
I26
sS'842'
p728
I25
sS'841'
p729
I44
sS'840'
p730
I45
sS'849'
p731
I48
sS'848'
p732
I9
sS'663'
p733
I101
sS'1039'
p734
I79
sS'753'
p735
I20
sS'752'
p736
I35
sS'751'
p737
I164
sS'750'
p738
I116
sS'757'
p739
I4
sS'756'
p740
I120
sS'755'
p741
I87
sS'754'
p742
I52
sS'759'
p743
I10
sS'758'
p744
I19
sS'1595'
p745
I1
sS'506'
p746
I78
sS'1597'
p747
I5
sS'1596'
p748
I1
sS'1591'
p749
I6
sS'1590'
p750
I2
sS'1593'
p751
I1
sS'1033'
p752
I28
sS'1599'
p753
I1
sS'1598'
p754
I6
sS'1025'
p755
I41
sS'1024'
p756
I12
sS'1027'
p757
I1
sS'1026'
p758
I4
sS'1021'
p759
I37
sS'1020'
p760
I32
sS'1023'
p761
I29
sS'1022'
p762
I31
sS'1036'
p763
I19
sS'1029'
p764
I13
sS'1028'
p765
I132
sS'503'
p766
I34
sS'500'
p767
I28
sS'1035'
p768
I57
sS'605'
p769
I30
sS'604'
p770
I71
sS'607'
p771
I61
sS'606'
p772
I61
sS'601'
p773
I19
sS'1208'
p774
I16
sS'603'
p775
I187
sS'602'
p776
I46
sS'1205'
p777
I6
sS'1204'
p778
I17
sS'1207'
p779
I15
sS'1206'
p780
I18
sS'609'
p781
I52
sS'1200'
p782
I7
sS'1203'
p783
I18
sS'1202'
p784
I8
sS'633'
p785
I59
sS'634'
p786
I22
sS'1217'
p787
I37
sS'1214'
p788
I9
sS'1215'
p789
I26
sS'1111'
p790
I6
sS'1446'
p791
I14
sS'1445'
p792
I4
sS'1444'
p793
I18
sS'1115'
p794
I24
sS'1442'
p795
I5
sS'1117'
p796
I17
sS'1116'
p797
I12
sS'1119'
p798
I50
sS'1118'
p799
I41
sS'1351'
p800
I3
sS'1449'
p801
I7
sS'1448'
p802
I3
sS'1219'
p803
I19
sS'1357'
p804
I3
sS'1356'
p805
I2
sS'1355'
p806
I6
sS'489'
p807
I47
sS'488'
p808
I59
sS'487'
p809
I66
sS'486'
p810
I56
sS'485'
p811
I108
sS'484'
p812
I124
sS'483'
p813
I215
sS'482'
p814
I111
sS'481'
p815
I53
sS'480'
p816
I155
sS'199'
p817
I144
sS'198'
p818
I112
sS'195'
p819
I277
sS'194'
p820
I224
sS'197'
p821
I215
sS'196'
p822
I229
sS'191'
p823
I242
sS'190'
p824
I119
sS'193'
p825
I148
sS'192'
p826
I110
sS'1106'
p827
I4
sS'1107'
p828
I15
sS'1104'
p829
I4
sS'1457'
p830
I1
sS'1102'
p831
I6
sS'1103'
p832
I17
sS'1100'
p833
I6
sS'1101'
p834
I63
sS'902'
p835
I38
sS'903'
p836
I17
sS'900'
p837
I33
sS'901'
p838
I11
sS'906'
p839
I18
sS'907'
p840
I2
sS'904'
p841
I18
sS'905'
p842
I25
sS'1511'
p843
I4
sS'908'
p844
I19
sS'909'
p845
I10
sS'854'
p846
I14
sS'855'
p847
I61
sS'856'
p848
I33
sS'857'
p849
I1
sS'850'
p850
I4
sS'851'
p851
I2
sS'852'
p852
I1
sS'853'
p853
I13
sS'858'
p854
I3
sS'859'
p855
I14
sS'6'
p856
I24
sS'740'
p857
I58
sS'741'
p858
I49
sS'742'
p859
I244
sS'743'
p860
I34
sS'744'
p861
I81
sS'745'
p862
I14
sS'746'
p863
I111
sS'747'
p864
I96
sS'748'
p865
I282
sS'749'
p866
I48
sS'617'
p867
I14
sS'1050'
p868
I40
sS'1051'
p869
I36
sS'1052'
p870
I22
sS'1053'
p871
I21
sS'1054'
p872
I20
sS'1055'
p873
I10
sS'1056'
p874
I9
sS'1057'
p875
I22
sS'1058'
p876
I14
sS'1059'
p877
I31
sS'1278'
p878
I15
sS'1279'
p879
I8
sS'618'
p880
I17
sS'619'
p881
I59
sS'612'
p882
I28
sS'1271'
p883
I7
sS'610'
p884
I34
sS'1273'
p885
I13
sS'616'
p886
I57
sS'1275'
p887
I4
sS'614'
p888
I46
sS'615'
p889
I56
sS'1491'
p890
I2
sS'1472'
p891
I2
sS'1473'
p892
I9
sS'1470'
p893
I5
sS'1471'
p894
I8
sS'1476'
p895
I1
sS'1477'
p896
I2
sS'1474'
p897
I6
sS'1475'
p898
I6
sS'1478'
p899
I18
sS'1479'
p900
I6
sS'1304'
p901
I2
sS'1305'
p902
I7
sS'1306'
p903
I1
sS'1307'
p904
I2
sS'1300'
p905
I8
sS'1301'
p906
I4
sS'1302'
p907
I3
sS'1303'
p908
I16
sS'1308'
p909
I1
sS'1309'
p910
I1
sS'498'
p911
I136
sS'499'
p912
I55
sS'494'
p913
I50
sS'495'
p914
I52
sS'496'
p915
I206
sS'497'
p916
I62
sS'490'
p917
I47
sS'491'
p918
I55
sS'492'
p919
I56
sS'493'
p920
I51
sS'24'
p921
I150
sS'25'
p922
I265
sS'26'
p923
I64
sS'27'
p924
I52
sS'20'
p925
I67
sS'21'
p926
I78
sS'22'
p927
I265
sS'23'
p928
I165
sS'28'
p929
I248
sS'29'
p930
I99
sS'1241'
p931
I6
sS'7'
p932
I349
sS'972'
p933
I25
sS'1087'
p934
I8
sS'1086'
p935
I17
sS'1085'
p936
I11
sS'592'
p937
I7
sS'1083'
p938
I4
sS'1082'
p939
I8
sS'977'
p940
I45
sS'976'
p941
I12
sS'975'
p942
I43
sS'974'
p943
I28
sS'973'
p944
I4
sS'1081'
p945
I6
sS'971'
p946
I29
sS'970'
p947
I8
sS'1080'
p948
I2
sS'979'
p949
I31
sS'978'
p950
I25
sS'182'
p951
I206
sS'183'
p952
I266
sS'180'
p953
I200
sS'181'
p954
I462
sS'186'
p955
I220
sS'187'
p956
I185
sS'184'
p957
I104
sS'185'
p958
I206
sS'188'
p959
I154
sS'189'
p960
I61
sS'1559'
p961
I1
sS'869'
p962
I18
sS'868'
p963
I5
sS'861'
p964
I3
sS'860'
p965
I16
sS'863'
p966
I21
sS'862'
p967
I16
sS'865'
p968
I17
sS'864'
p969
I81
sS'867'
p970
I6
sS'866'
p971
I107
sS'883'
p972
I10
sS'882'
p973
I29
sS'881'
p974
I42
sS'880'
p975
I56
sS'887'
p976
I58
sS'886'
p977
I46
sS'885'
p978
I11
sS'884'
p979
I5
sS'889'
p980
I13
sS'888'
p981
I12
sS'775'
p982
I23
sS'774'
p983
I29
sS'777'
p984
I4
sS'776'
p985
I8
sS'771'
p986
I38
sS'770'
p987
I51
sS'773'
p988
I16
sS'772'
p989
I47
sS'779'
p990
I28
sS'778'
p991
I68
sS'77'
p992
I136
sS'76'
p993
I46
sS'75'
p994
I5
sS'74'
p995
I7
sS'73'
p996
I116
sS'72'
p997
I113
sS'71'
p998
I196
sS'70'
p999
I221
sS'79'
p1000
I296
sS'78'
p1001
I30
sS'1043'
p1002
I7
sS'1042'
p1003
I25
sS'1041'
p1004
I54
sS'1040'
p1005
I23
sS'1047'
p1006
I125
sS'1046'
p1007
I42
sS'1045'
p1008
I21
sS'1044'
p1009
I35
sS'1049'
p1010
I23
sS'1048'
p1011
I63
sS'1681'
p1012
I1
sS'1680'
p1013
I1
sS'1682'
p1014
I1
sS'1269'
p1015
I10
sS'1268'
p1016
I10
sS'669'
p1017
I13
sS'668'
p1018
I5
sS'667'
p1019
I11
sS'1262'
p1020
I6
sS'665'
p1021
I90
sS'664'
p1022
I37
sS'1267'
p1023
I30
sS'662'
p1024
I74
sS'1265'
p1025
I18
sS'1264'
p1026
I7
sS'1469'
p1027
I9
sS'1468'
p1028
I5
sS'1465'
p1029
I3
sS'1464'
p1030
I3
sS'1467'
p1031
I2
sS'1466'
p1032
I6
sS'1461'
p1033
I1
sS'1460'
p1034
I1
sS'1463'
p1035
I2
sS'1019'
p1036
I28
sS'1317'
p1037
I4
sS'1316'
p1038
I5
sS'1315'
p1039
I21
sS'1314'
p1040
I9
sS'1313'
p1041
I14
sS'1312'
p1042
I6
sS'1311'
p1043
I15
sS'1310'
p1044
I1
sS'1319'
p1045
I4
sS'1318'
p1046
I3
sS'528'
p1047
I109
sS'529'
p1048
I84
sS'319'
p1049
I146
sS'318'
p1050
I266
sS'313'
p1051
I320
sS'312'
p1052
I75
sS'311'
p1053
I65
sS'310'
p1054
I128
sS'317'
p1055
I93
sS'316'
p1056
I99
sS'315'
p1057
I145
sS'314'
p1058
I5
sS'1520'
p1059
I1
sS'1335'
p1060
I10
sS'1334'
p1061
I2
sS'1337'
p1062
I9
sS'1336'
p1063
I8
sS'1331'
p1064
I4
sS'446'
p1065
I9
sS'1333'
p1066
I4
sS'1332'
p1067
I2
sS'630'
p1068
I29
sS'631'
p1069
I105
sS'632'
p1070
I53
sS'403'
p1071
I181
sS'1521'
p1072
I3
sS'964'
p1073
I8
sS'965'
p1074
I19
sS'966'
p1075
I23
sS'967'
p1076
I10
sS'960'
p1077
I25
sS'961'
p1078
I29
sS'962'
p1079
I20
sS'963'
p1080
I39
sS'968'
p1081
I17
sS'969'
p1082
I60
sS'635'
p1083
I22
sS'1537'
p1084
I4
sS'878'
p1085
I31
sS'1240'
p1086
I24
sS'876'
p1087
I43
sS'877'
p1088
I45
sS'874'
p1089
I35
sS'875'
p1090
I49
sS'872'
p1091
I39
sS'873'
p1092
I71
sS'870'
p1093
I7
sS'871'
p1094
I72
sS'1242'
p1095
I4
sS'9'
p1096
I269
sS'1245'
p1097
I19
sS'644'
p1098
I34
sS'890'
p1099
I42
sS'891'
p1100
I6
sS'892'
p1101
I47
sS'893'
p1102
I12
sS'894'
p1103
I17
sS'895'
p1104
I97
sS'896'
p1105
I40
sS'897'
p1106
I2
sS'898'
p1107
I55
sS'899'
p1108
I8
sS'1246'
p1109
I6
sS'1249'
p1110
I10
sS'1248'
p1111
I18
sS'768'
p1112
I50
sS'769'
p1113
I37
sS'762'
p1114
I109
sS'763'
p1115
I135
sS'760'
p1116
I42
sS'761'
p1117
I39
sS'766'
p1118
I8
sS'767'
p1119
I10
sS'764'
p1120
I22
sS'765'
p1121
I26
sS'1078'
p1122
I20
sS'1079'
p1123
I38
sS'1076'
p1124
I11
sS'1077'
p1125
I6
sS'1074'
p1126
I69
sS'1075'
p1127
I6
sS'1072'
p1128
I6
sS'1073'
p1129
I59
sS'1070'
p1130
I25
sS'1071'
p1131
I14
sS'1678'
p1132
I1
sS'1561'
p1133
I1
sS'1674'
p1134
I1
sS'1675'
p1135
I1
sS'1676'
p1136
I1
sS'1677'
p1137
I1
sS'1670'
p1138
I1
sS'1672'
p1139
I2
sS'1673'
p1140
I1
sS'1094'
p1141
I11
sS'1095'
p1142
I25
sS'1096'
p1143
I3
sS'1097'
p1144
I15
sS'1090'
p1145
I29
sS'679'
p1146
I94
sS'1092'
p1147
I9
sS'1534'
p1148
I5
sS'674'
p1149
I43
sS'675'
p1150
I46
sS'676'
p1151
I72
sS'677'
p1152
I1
sS'670'
p1153
I28
sS'1099'
p1154
I13
sS'672'
p1155
I57
sS'673'
p1156
I77
sS'1533'
p1157
I1
sS'1418'
p1158
I2
sS'1419'
p1159
I14
sS'1410'
p1160
I4
sS'1411'
p1161
I27
sS'1412'
p1162
I5
sS'1413'
p1163
I7
sS'1414'
p1164
I1
sS'1415'
p1165
I8
sS'1416'
p1166
I5
sS'1417'
p1167
I1
sS'1322'
p1168
I6
sS'1323'
p1169
I3
sS'1320'
p1170
I1
sS'1321'
p1171
I2
sS'1326'
p1172
I3
sS'1327'
p1173
I3
sS'1324'
p1174
I5
sS'1325'
p1175
I1
sS'1328'
p1176
I6
sS'1329'
p1177
I1
sS'5'
p1178
I77
sS'1531'
p1179
I6
sS'1524'
p1180
I7
sS'1257'
p1181
I4
sS'1254'
p1182
I10
sS'1527'
p1183
I6
sS'1252'
p1184
I8
sS'1253'
p1185
I6
sS'1250'
p1186
I6
sS'1251'
p1187
I7
sS'1528'
p1188
I2
sS'1529'
p1189
I3
sS'1258'
p1190
I21
sS'1259'
p1191
I4
sS'308'
p1192
I28
sS'309'
p1193
I26
sS'300'
p1194
I386
sS'301'
p1195
I210
sS'302'
p1196
I268
sS'303'
p1197
I121
sS'304'
p1198
I131
sS'305'
p1199
I79
sS'306'
p1200
I85
sS'307'
p1201
I165
sS'473'
p1202
I109
sS'1443'
p1203
I3
sS'959'
p1204
I63
sS'958'
p1205
I13
sS'951'
p1206
I34
sS'950'
p1207
I29
sS'953'
p1208
I21
sS'952'
p1209
I40
sS'955'
p1210
I46
sS'954'
p1211
I9
sS'957'
p1212
I1
sS'956'
p1213
I41
sS'1263'
p1214
I14
sS'666'
p1215
I5
sS'504'
p1216
I110
sS'1261'
p1217
I4
sS'1260'
p1218
I2
sS'719'
p1219
I26
sS'718'
p1220
I15
sS'717'
p1221
I74
sS'716'
p1222
I51
sS'715'
p1223
I79
sS'714'
p1224
I13
sS'713'
p1225
I64
sS'712'
p1226
I44
sS'711'
p1227
I1
sS'710'
p1228
I66
sS'661'
p1229
I77
sS'660'
p1230
I132
sS'1069'
p1231
I15
sS'1068'
p1232
I12
sS'1061'
p1233
I27
sS'1060'
p1234
I32
sS'1063'
p1235
I38
sS'1062'
p1236
I10
sS'1065'
p1237
I46
sS'1064'
p1238
I4
sS'1067'
p1239
I41
sS'1066'
p1240
I15
sS'1669'
p1241
I1
sS'1668'
p1242
I1
sS'1667'
p1243
I1
sS'1666'
p1244
I1
sS'1665'
p1245
I1
sS'1664'
p1246
I4
sS'1663'
p1247
I1
sS'1662'
p1248
I2
sS'1660'
p1249
I1
sS'591'
p1250
I161
sS'590'
p1251
I16
sS'593'
p1252
I12
sS'1084'
p1253
I19
sS'595'
p1254
I60
sS'594'
p1255
I4
sS'597'
p1256
I188
sS'596'
p1257
I114
sS'599'
p1258
I1
sS'598'
p1259
I3
sS'1089'
p1260
I34
sS'1088'
p1261
I13
sS'1409'
p1262
I7
sS'1408'
p1263
I3
sS'1403'
p1264
I4
sS'1402'
p1265
I4
sS'1401'
p1266
I16
sS'1400'
p1267
I9
sS'1407'
p1268
I18
sS'1406'
p1269
I5
sS'1405'
p1270
I6
sS'1404'
p1271
I12
sS'1546'
p1272
I1
sS'449'
p1273
I108
sS'448'
p1274
I78
sS'1339'
p1275
I1
sS'1338'
p1276
I4
sS'1547'
p1277
I2
sS'443'
p1278
I146
sS'442'
p1279
I3
sS'441'
p1280
I42
sS'440'
p1281
I13
sS'447'
p1282
I109
sS'1330'
p1283
I4
sS'445'
p1284
I18
sS'444'
p1285
I42
sS'1545'
p1286
I4
sS'1542'
p1287
I1
sS'1543'
p1288
I1
sS'39'
p1289
I81
sS'38'
p1290
I108
sS'694'
p1291
I41
sS'33'
p1292
I86
sS'32'
p1293
I76
sS'31'
p1294
I139
sS'30'
p1295
I35
sS'37'
p1296
I7
sS'36'
p1297
I10
sS'35'
p1298
I11
sS'34'
p1299
I4
sS'641'
p1300
I32
sS'640'
p1301
I74
sS'1243'
p1302
I7
sS'642'
p1303
I78
sS'645'
p1304
I23
sS'1244'
p1305
I32
sS'647'
p1306
I62
sS'646'
p1307
I35
sS'649'
p1308
I42
sS'648'
p1309
I62
sS'1539'
p1310
I2
sS'1538'
p1311
I3
sS'339'
p1312
I44
sS'338'
p1313
I82
sS'335'
p1314
I18
sS'334'
p1315
I57
sS'337'
p1316
I17
sS'336'
p1317
I40
sS'331'
p1318
I102
sS'330'
p1319
I33
sS'333'
p1320
I228
sS'332'
p1321
I132
sS'8'
p1322
I196
sS'1353'
p1323
I3
sS'1462'
p1324
I6
sS'1352'
p1325
I1
sS'1350'
p1326
I1
sS'948'
p1327
I42
sS'949'
p1328
I64
sS'946'
p1329
I56
sS'947'
p1330
I16
sS'944'
p1331
I38
sS'945'
p1332
I37
sS'942'
p1333
I41
sS'943'
p1334
I33
sS'940'
p1335
I27
sS'941'
p1336
I43
sS'133'
p1337
I155
sS'132'
p1338
I221
sS'131'
p1339
I82
sS'130'
p1340
I23
sS'137'
p1341
I158
sS'136'
p1342
I98
sS'135'
p1343
I238
sS'134'
p1344
I174
sS'139'
p1345
I44
sS'138'
p1346
I17
sS'1354'
p1347
I2
sS'708'
p1348
I87
sS'709'
p1349
I94
sS'704'
p1350
I20
sS'705'
p1351
I121
sS'706'
p1352
I5
sS'707'
p1353
I59
sS'700'
p1354
I14
sS'701'
p1355
I10
sS'702'
p1356
I46
sS'703'
p1357
I18
sS'88'
p1358
I190
sS'89'
p1359
I250
sS'82'
p1360
I239
sS'83'
p1361
I165
sS'80'
p1362
I59
sS'81'
p1363
I102
sS'86'
p1364
I139
sS'87'
p1365
I123
sS'84'
p1366
I15
sS'85'
p1367
I54
sS'1658'
p1368
I1
sS'1659'
p1369
I1
sS'1652'
p1370
I3
sS'1388'
p1371
I6
sS'1650'
p1372
I1
sS'1651'
p1373
I1
sS'1656'
p1374
I1
sS'1657'
p1375
I1
sS'1654'
p1376
I1
sS'1655'
p1377
I1
sS'586'
p1378
I26
sS'587'
p1379
I14
sS'584'
p1380
I73
sS'585'
p1381
I34
sS'582'
p1382
I151
sS'583'
p1383
I36
sS'580'
p1384
I28
sS'581'
p1385
I55
sS'588'
p1386
I181
sS'589'
p1387
I40
sS'1348'
p1388
I1
sS'1436'
p1389
I1
sS'1437'
p1390
I8
sS'1434'
p1391
I9
sS'1435'
p1392
I6
sS'1432'
p1393
I2
sS'1433'
p1394
I2
sS'1430'
p1395
I2
sS'1431'
p1396
I5
sS'1380'
p1397
I5
sS'1438'
p1398
I5
sS'1439'
p1399
I8
sS'1349'
p1400
I1
sS'1541'
p1401
I2
sS'458'
p1402
I80
sS'459'
p1403
I20
sS'450'
p1404
I60
sS'451'
p1405
I157
sS'452'
p1406
I58
sS'453'
p1407
I14
sS'454'
p1408
I14
sS'455'
p1409
I120
sS'456'
p1410
I42
sS'457'
p1411
I21
sS'1266'
p1412
I11
sS'656'
p1413
I42
sS'657'
p1414
I117
sS'654'
p1415
I131
sS'1501'
p1416
I5
sS'652'
p1417
I81
sS'1507'
p1418
I1
sS'650'
p1419
I66
sS'651'
p1420
I153
sS'1508'
p1421
I3
sS'1509'
p1422
I5
sS'658'
p1423
I73
sS'516'
p1424
I58
sS'1292'
p1425
I2
sS'322'
p1426
I197
sS'323'
p1427
I216
sS'320'
p1428
I17
sS'321'
p1429
I153
sS'326'
p1430
I152
sS'327'
p1431
I158
sS'324'
p1432
I113
sS'325'
p1433
I108
sS'328'
p1434
I266
sS'329'
p1435
I39
sS'1340'
p1436
I1
sS'1594'
p1437
I2
sS'1341'
p1438
I1
sS'1592'
p1439
I5
sS'995'
p1440
I28
sS'994'
p1441
I6
sS'997'
p1442
I15
sS'996'
p1443
I14
sS'991'
p1444
I24
sS'990'
p1445
I31
sS'993'
p1446
I61
sS'992'
p1447
I4
sS'999'
p1448
I7
sS'998'
p1449
I12
sS'120'
p1450
I62
sS'121'
p1451
I393
sS'122'
p1452
I97
sS'123'
p1453
I103
sS'124'
p1454
I175
sS'125'
p1455
I224
sS'126'
p1456
I89
sS'127'
p1457
I377
sS'128'
p1458
I60
sS'129'
p1459
I118
sS'1644'
p1460
I2
sS'1647'
p1461
I1
sS'1646'
p1462
I2
sS'1641'
p1463
I1
sS'1643'
p1464
I4
sS'1642'
p1465
I2
sS'1396'
p1466
I5
sS'1649'
p1467
I1
sS'1648'
p1468
I1
sS'579'
p1469
I13
sS'578'
p1470
I82
sS'573'
p1471
I27
sS'572'
p1472
I27
sS'571'
p1473
I26
sS'570'
p1474
I47
sS'577'
p1475
I37
sS'576'
p1476
I83
sS'575'
p1477
I39
sS'574'
p1478
I14
sS'1209'
p1479
I15
sS'600'
p1480
I2
sS'1421'
p1481
I9
sS'1420'
p1482
I3
sS'1423'
p1483
I4
sS'1422'
p1484
I4
sS'1425'
p1485
I8
sS'1424'
p1486
I3
sS'1427'
p1487
I5
sS'1426'
p1488
I7
sS'1429'
p1489
I3
sS'1428'
p1490
I8
sS'731'
p1491
I33
sS'730'
p1492
I20
sS'733'
p1493
I14
sS'732'
p1494
I164
sS'735'
p1495
I123
sS'734'
p1496
I24
sS'737'
p1497
I52
sS'736'
p1498
I71
sS'739'
p1499
I145
sS'738'
p1500
I28
sS'1359'
p1501
I2
sS'1358'
p1502
I2
sS'469'
p1503
I61
sS'468'
p1504
I57
sS'465'
p1505
I80
sS'464'
p1506
I23
sS'467'
p1507
I46
sS'466'
p1508
I44
sS'461'
p1509
I65
sS'460'
p1510
I23
sS'463'
p1511
I64
sS'462'
p1512
I132
sS'1519'
p1513
I1
sS'1518'
p1514
I12
sS'1515'
p1515
I1
sS'1514'
p1516
I6
sS'1517'
p1517
I5
sS'1516'
p1518
I3
sS'1274'
p1519
I11
sS'1510'
p1520
I1
sS'1513'
p1521
I3
sS'1512'
p1522
I6
sS'1138'
p1523
I3
sS'357'
p1524
I230
sS'356'
p1525
I86
sS'355'
p1526
I40
sS'354'
p1527
I65
sS'353'
p1528
I14
sS'352'
p1529
I23
sS'351'
p1530
I16
sS'350'
p1531
I38
sS'359'
p1532
I15
sS'358'
p1533
I131
sS'1447'
p1534
I1
sS'1110'
p1535
I35
sS'1113'
p1536
I21
sS'289'
p1537
I238
sS'288'
p1538
I437
sS'1112'
p1539
I15
sS'281'
p1540
I128
sS'280'
p1541
I74
sS'283'
p1542
I153
sS'282'
p1543
I207
sS'285'
p1544
I146
sS'284'
p1545
I177
sS'287'
p1546
I71
sS'286'
p1547
I431
sS'1441'
p1548
I7
sS'1440'
p1549
I5
sS'263'
p1550
I18
sS'262'
p1551
I61
sS'261'
p1552
I42
sS'260'
p1553
I115
sS'267'
p1554
I9
sS'266'
p1555
I32
sS'265'
p1556
I201
sS'264'
p1557
I95
sS'1031'
p1558
I6
sS'269'
p1559
I289
sS'268'
p1560
I233
sS'1562'
p1561
I1
sS'1563'
p1562
I1
sS'1564'
p1563
I1
sS'1565'
p1564
I1
sS'1566'
p1565
I1
sS'1567'
p1566
I1
sS'988'
p1567
I77
sS'989'
p1568
I31
sS'982'
p1569
I18
sS'983'
p1570
I13
sS'980'
p1571
I20
sS'981'
p1572
I6
sS'986'
p1573
I19
sS'987'
p1574
I4
sS'984'
p1575
I39
sS'985'
p1576
I19
sS'115'
p1577
I14
sS'114'
p1578
I58
sS'117'
p1579
I334
sS'116'
p1580
I117
sS'111'
p1581
I247
sS'110'
p1582
I26
sS'113'
p1583
I9
sS'112'
p1584
I19
sS'119'
p1585
I3
sS'118'
p1586
I266
sS'1389'
p1587
I3
sS'1630'
p1588
I1
sS'1631'
p1589
I2
sS'1632'
p1590
I1
sS'1633'
p1591
I1
sS'1634'
p1592
I1
sS'1635'
p1593
I1
sS'1636'
p1594
I1
sS'1638'
p1595
I1
sS'1639'
p1596
I3
sS'568'
p1597
I210
sS'569'
p1598
I62
sS'560'
p1599
I19
sS'561'
p1600
I52
sS'562'
p1601
I45
sS'563'
p1602
I26
sS'564'
p1603
I22
sS'565'
p1604
I19
sS'566'
p1605
I157
sS'567'
p1606
I33
sS'1188'
p1607
I39
sS'1189'
p1608
I3
sS'1186'
p1609
I3
sS'1187'
p1610
I11
sS'1184'
p1611
I8
sS'1185'
p1612
I17
sS'1182'
p1613
I12
sS'1183'
p1614
I18
sS'1180'
p1615
I10
sS'1181'
p1616
I10
sS'726'
p1617
I14
sS'727'
p1618
I59
sS'724'
p1619
I68
sS'725'
p1620
I12
sS'722'
p1621
I54
sS'723'
p1622
I33
sS'720'
p1623
I78
sS'721'
p1624
I47
sS'728'
p1625
I40
sS'729'
p1626
I74
sS'1164'
p1627
I6
sS'1165'
p1628
I12
sS'1166'
p1629
I10
sS'1167'
p1630
I11
sS'1160'
p1631
I22
sS'1161'
p1632
I12
sS'1162'
p1633
I5
sS'1163'
p1634
I23
sS'1168'
p1635
I19
sS'1169'
p1636
I8
sS'48'
p1637
I108
sS'49'
p1638
I76
sS'46'
p1639
I21
sS'47'
p1640
I122
sS'44'
p1641
I75
sS'45'
p1642
I66
sS'42'
p1643
I129
sS'43'
p1644
I36
sS'40'
p1645
I51
sS'41'
p1646
I34
sS'1568'
p1647
I1
sS'1569'
p1648
I1
sS'1298'
p1649
I8
sS'1299'
p1650
I8
sS'1560'
p1651
I4
sS'476'
p1652
I143
sS'1290'
p1653
I2
sS'1291'
p1654
I14
sS'1296'
p1655
I16
sS'1297'
p1656
I11
sS'1294'
p1657
I7
sS'1295'
p1658
I6
sS'1360'
p1659
I2
sS'1361'
p1660
I2
sS'1381'
p1661
I6
sS'1201'
p1662
I1
sS'472'
p1663
I135
sS'1367'
p1664
I4
sS'470'
p1665
I94
sS'471'
p1666
I203
sS'1362'
p1667
I2
sS'477'
p1668
I87
sS'474'
p1669
I174
sS'475'
p1670
I225
sS'478'
p1671
I92
sS'479'
p1672
I155
sS'1368'
p1673
I6
sS'1369'
p1674
I4
s.